target datalayout = "e-m:e-p270:32:32-p271:32:32-p272:64:64-i64:64-i128:128-f80:128-n8:16:32:64-S128"
target triple = "x86_64-pc-linux-gnu"

%struct.AVChannelLayout = type { i32, i32, %union.anon.1, ptr }
%union.anon.1 = type { i64 }
%struct.AVCodecContext = type { ptr, i32, i32, ptr, i32, i32, ptr, ptr, ptr, i64, i32, i32, ptr, i32, %struct.AVRational, %struct.AVRational, %struct.AVRational, i32, i32, i32, i32, i32, %struct.AVRational, i32, i32, i32, i32, i32, i32, i32, i32, i32, i32, i32, ptr, ptr, i32, float, float, float, float, float, float, float, float, float, i32, i32, i32, i32, i32, i32, i32, i32, i32, i32, i32, i32, ptr, ptr, ptr, i32, i32, i32, i32, i32, i32, i32, i32, i32, i32, %struct.AVChannelLayout, i32, i32, i32, i32, i32, i32, i32, i32, ptr, i32, i32, i32, float, float, i32, i32, i32, i32, i32, ptr, i64, i64, float, float, i32, i32, ptr, ptr, i32, i32, i32, i32, i32, ptr, ptr, ptr, ptr, i32, i32, [8 x i64], i32, i32, i32, i32, i32, i32, i32, ptr, ptr, i32, i32, i32, i32, i32, i32, i32, i32, i32, i32, ptr, ptr, i32, i32, ptr, ptr, ptr, ptr, i32, i32, i64, i32, i32, i64, ptr, i64, ptr, i32, ptr, i32 }
%struct.AVRational = type { i32, i32 }
%struct.AC3DecodeContext = type { ptr, ptr, %struct.GetBitContext, %struct.BswapDSPContext, ptr, %struct.AC3DSPContext, %struct.FmtConvertContext, ptr, ptr, ptr, ptr, [7 x ptr], [7 x ptr], %struct.AVChannelLayout, [2 x ptr], i32, i32, i32, i32, i32, i32, i32, i32, i32, i32, i32, [2 x i32], [2 x i32], i32, i32, i32, i32, i32, i32, i32, i32, i32, i32, i32, i32, i32, i32, i32, float, float, float, float, i32, [2 x float], i32, i32, i32, i32, i32, i32, i32, [6 x i32], [6 x i32], [7 x i32], i32, [18 x i32], i32, [18 x i8], [18 x i8], i32, [7 x i32], [7 x [18 x i32]], i32, [7 x i8], [7 x i8], i32, i32, i32, i32, [17 x i8], [17 x i8], [7 x i8], [7 x [17 x float]], [7 x [17 x float]], [7 x i32], [7 x [256 x [6 x i32]]], i32, i32, i32, i32, i32, i32, i32, i32, [2 x float], float, i32, [2 x float], [7 x i32], [7 x i32], i32, i32, [4 x i32], [7 x i32], [7 x [256 x i8]], [6 x [7 x i32]], %struct.AC3BitAllocParameters, i32, [7 x i32], [7 x i32], [7 x [256 x i8]], [7 x [256 x i16]], [7 x [50 x i16]], [7 x [50 x i16]], [7 x i32], [7 x i32], [7 x [8 x i8]], [7 x [8 x i8]], [7 x [8 x i8]], [7 x i32], %struct.AVLFG, [7 x i32], [7 x ptr], [7 x [256 x i32]], [7 x [256 x float]], [16 x [256 x float]], [256 x float], [256 x float], [16 x [256 x float]], [32832 x i8], [16 x [1536 x float]] }
%struct.GetBitContext = type { ptr, ptr, i32, i32, i32 }
%struct.BswapDSPContext = type { ptr, ptr }
%struct.AC3DSPContext = type { ptr, ptr, ptr, ptr, ptr, ptr, ptr, ptr, i32, i32, ptr, ptr }
%struct.FmtConvertContext = type { ptr, ptr }
%struct.AC3BitAllocParameters = type { i32, i32, i32, i32, i32, i32, i32, i32, i32 }
%struct.AVLFG = type { [64 x i32], i32 }

; Function Attrs: cold nounwind optsize uwtable
define internal void @ac3_decode_flush(ptr noundef %0) #0 {
  %2 = alloca ptr, align 8
  %3 = alloca ptr, align 8
  store ptr %0, ptr %2, align 8, !tbaa !4
  call void @llvm.lifetime.start.p0(i64 8, ptr %3) #12
  %4 = load ptr, ptr %2, align 8, !tbaa !4
  %5 = getelementptr inbounds nuw %struct.AVCodecContext, ptr %4, i32 0, i32 6
  %6 = load ptr, ptr %5, align 8, !tbaa !9
  store ptr %6, ptr %3, align 8, !tbaa !29
  %7 = load ptr, ptr %3, align 8, !tbaa !29
  %8 = getelementptr inbounds nuw %struct.AC3DecodeContext, ptr %7, i32 0, i32 15
  call void @llvm.memset.p0.i64(ptr align 8 %8, i8 0, i64 234856, i1 false)
  %9 = load ptr, ptr %3, align 8, !tbaa !29
  %10 = getelementptr inbounds nuw %struct.AC3DecodeContext, ptr %9, i32 0, i32 121
  %11 = getelementptr inbounds [256 x float], ptr %10, i64 0, i64 0
  call void @ff_kbd_window_init(ptr noundef %11, float noundef 5.000000e+00, i32 noundef 256)
  %12 = load ptr, ptr %3, align 8, !tbaa !29
  %13 = getelementptr inbounds nuw %struct.AC3DecodeContext, ptr %12, i32 0, i32 115
  call void @av_lfg_init(ptr noundef %13, i32 noundef 0)
  call void @llvm.lifetime.end.p0(i64 8, ptr %3) #12
  ret void
}