; Function Attrs: cold nounwind optsize uwtable
define internal void @ac3_decode_flush(ptr noundef readonly captures(none) %0) #0 {
  %2 = getelementptr inbounds nuw i8, ptr %0, i64 32
  %3 = load ptr, ptr %2, align 8, !tbaa !4
  %4 = getelementptr inbounds nuw i8, ptr %3, i64 360
  tail call void @llvm.memset.p0.i64(ptr noundef nonnull align 8 dereferenceable(234856) %4, i8 0, i64 234856, i1 false)
  %5 = getelementptr inbounds nuw i8, ptr %3, i64 85648
  tail call void @ff_kbd_window_init(ptr noundef nonnull %5, float noundef 5.000000e+00, i32 noundef 256) #12
  %6 = getelementptr inbounds nuw i8, ptr %3, i64 54580
  tail call void @av_lfg_init(ptr noundef nonnull %6, i32 noundef 0) #12
  ret void
}